target datalayout = "e-m:e-p270:32:32-p271:32:32-p272:64:64-i64:64-i128:128-f80:128-n8:16:32:64-S128"
target triple = "x86_64-pc-linux-gnu"

%struct._GTypeInstance = type { ptr }
%struct._GTypeClass = type { i64 }

; Function Attrs: nounwind uwtable
define internal void @_apply_metadata_toggled(ptr noundef %0, ptr noundef %1) #0 {
  %3 = alloca ptr, align 8
  %4 = alloca ptr, align 8
  %5 = alloca i32, align 4
  %6 = alloca i32, align 4
  %7 = alloca i32, align 4
  %8 = alloca i32, align 4
  %9 = alloca ptr, align 8
  %10 = alloca ptr, align 8
  %11 = alloca i64, align 8
  %12 = alloca i32, align 4
  %13 = alloca i32, align 4
  store ptr %0, ptr %3, align 8, !tbaa !11
  store ptr %1, ptr %4, align 8, !tbaa !11
  call void @llvm.lifetime.start.p0(i64 4, ptr %5) #7
  %14 = load ptr, ptr %3, align 8, !tbaa !11
  %15 = call i64 @gtk_toggle_button_get_type() #8
  %16 = call ptr @g_type_check_instance_cast(ptr noundef %14, i64 noundef %15)
  %17 = call i32 @gtk_toggle_button_get_active(ptr noundef %16)
  store i32 %17, ptr %5, align 4, !tbaa !61
  call void @llvm.lifetime.start.p0(i64 4, ptr %6) #7
  store i32 0, ptr %6, align 4, !tbaa !61
  br label %18

18:                                               ; preds = %70, %2
  %19 = load i32, ptr %6, align 4, !tbaa !61
  %20 = icmp slt i32 %19, 12
  br i1 %20, label %22, label %21

21:                                               ; preds = %18
  store i32 2, ptr %7, align 4
  call void @llvm.lifetime.end.p0(i64 4, ptr %6) #7
  br label %73

22:                                               ; preds = %18
  call void @llvm.lifetime.start.p0(i64 4, ptr %8) #7
  store i32 0, ptr %8, align 4, !tbaa !61
  br label %23

23:                                               ; preds = %66, %22
  %24 = load i32, ptr %8, align 4, !tbaa !61
  %25 = icmp slt i32 %24, 2
  br i1 %25, label %27, label %26

26:                                               ; preds = %23
  store i32 5, ptr %7, align 4
  call void @llvm.lifetime.end.p0(i64 4, ptr %8) #7
  br label %69

27:                                               ; preds = %23
  call void @llvm.lifetime.start.p0(i64 8, ptr %9) #7
  %28 = load ptr, ptr %4, align 8, !tbaa !11
  %29 = call i64 @gtk_grid_get_type() #8
  %30 = call ptr @g_type_check_instance_cast(ptr noundef %28, i64 noundef %29)
  %31 = load i32, ptr %8, align 4, !tbaa !61
  %32 = load i32, ptr %6, align 4, !tbaa !61
  %33 = call ptr @gtk_grid_get_child_at(ptr noundef %30, i32 noundef %31, i32 noundef %32)
  store ptr %33, ptr %9, align 8, !tbaa !11
  call void @llvm.lifetime.start.p0(i64 8, ptr %10) #7
  %34 = load ptr, ptr %9, align 8, !tbaa !11
  store ptr %34, ptr %10, align 8, !tbaa !91
  call void @llvm.lifetime.start.p0(i64 8, ptr %11) #7
  %35 = call i64 @gtk_widget_get_type() #8
  store i64 %35, ptr %11, align 8, !tbaa !62
  call void @llvm.lifetime.start.p0(i64 4, ptr %12) #7
  %36 = load ptr, ptr %10, align 8, !tbaa !91
  %37 = icmp ne ptr %36, null
  br i1 %37, label %39, label %38

38:                                               ; preds = %27
  store i32 0, ptr %12, align 4, !tbaa !61
  br label %58

39:                                               ; preds = %27
  %40 = load ptr, ptr %10, align 8, !tbaa !91
  %41 = getelementptr inbounds nuw %struct._GTypeInstance, ptr %40, i32 0, i32 0
  %42 = load ptr, ptr %41, align 8, !tbaa !93
  %43 = icmp ne ptr %42, null
  br i1 %43, label %44, label %53

44:                                               ; preds = %39
  %45 = load ptr, ptr %10, align 8, !tbaa !91
  %46 = getelementptr inbounds nuw %struct._GTypeInstance, ptr %45, i32 0, i32 0
  %47 = load ptr, ptr %46, align 8, !tbaa !93
  %48 = getelementptr inbounds nuw %struct._GTypeClass, ptr %47, i32 0, i32 0
  %49 = load i64, ptr %48, align 8, !tbaa !96
  %50 = load i64, ptr %11, align 8, !tbaa !62
  %51 = icmp eq i64 %49, %50
  br i1 %51, label %52, label %53

52:                                               ; preds = %44
  store i32 1, ptr %12, align 4, !tbaa !61
  br label %57

53:                                               ; preds = %44, %39
  %54 = load ptr, ptr %10, align 8, !tbaa !91
  %55 = load i64, ptr %11, align 8, !tbaa !62
  %56 = call i32 @g_type_check_instance_is_a(ptr noundef %54, i64 noundef %55) #9
  store i32 %56, ptr %12, align 4, !tbaa !61
  br label %57

57:                                               ; preds = %53, %52
  br label %58

58:                                               ; preds = %57, %38
  %59 = load i32, ptr %12, align 4, !tbaa !61
  store i32 %59, ptr %13, align 4, !tbaa !61
  call void @llvm.lifetime.end.p0(i64 4, ptr %12) #7
  call void @llvm.lifetime.end.p0(i64 8, ptr %11) #7
  call void @llvm.lifetime.end.p0(i64 8, ptr %10) #7
  %60 = load i32, ptr %13, align 4, !tbaa !61
  %61 = icmp ne i32 %60, 0
  br i1 %61, label %62, label %65

62:                                               ; preds = %58
  %63 = load ptr, ptr %9, align 8, !tbaa !11
  %64 = load i32, ptr %5, align 4, !tbaa !61
  call void @gtk_widget_set_sensitive(ptr noundef %63, i32 noundef %64)
  br label %65

65:                                               ; preds = %62, %58
  call void @llvm.lifetime.end.p0(i64 8, ptr %9) #7
  br label %66

66:                                               ; preds = %65
  %67 = load i32, ptr %8, align 4, !tbaa !61
  %68 = add nsw i32 %67, 1
  store i32 %68, ptr %8, align 4, !tbaa !61
  br label %23

69:                                               ; preds = %26
  br label %70

70:                                               ; preds = %69
  %71 = load i32, ptr %6, align 4, !tbaa !61
  %72 = add nsw i32 %71, 1
  store i32 %72, ptr %6, align 4, !tbaa !61
  br label %18

73:                                               ; preds = %21
  call void @llvm.lifetime.end.p0(i64 4, ptr %5) #7
  ret void
}