; Function Attrs: nounwind uwtable
define internal void @_apply_metadata_toggled(ptr noundef %0, ptr noundef %1) #0 {
  %3 = tail call i64 @gtk_toggle_button_get_type() #11
  %4 = tail call ptr @g_type_check_instance_cast(ptr noundef %0, i64 noundef %3) #10
  %5 = tail call i32 @gtk_toggle_button_get_active(ptr noundef %4) #10
  %6 = tail call i64 @gtk_grid_get_type() #11
  br label %.preheader

.preheader:                                       ; preds = %2, %8
  %.027 = phi i32 [ 0, %2 ], [ %9, %8 ]
  br label %10

7:                                                ; preds = %8
  ret void

8:                                                ; preds = %.critedge
  %9 = add nuw nsw i32 %.027, 1
  %exitcond.not = icmp eq i32 %9, 12
  br i1 %exitcond.not, label %7, label %.preheader

10:                                               ; preds = %.preheader, %.critedge
  %11 = phi i1 [ true, %.preheader ], [ false, %.critedge ]
  %.01926 = phi i32 [ 0, %.preheader ], [ 1, %.critedge ]
  %12 = tail call ptr @g_type_check_instance_cast(ptr noundef %1, i64 noundef %6) #10
  %13 = tail call ptr @gtk_grid_get_child_at(ptr noundef %12, i32 noundef %.01926, i32 noundef %.027) #10
  %14 = tail call i64 @gtk_widget_get_type() #11
  %.not = icmp eq ptr %13, null
  br i1 %.not, label %.critedge, label %15

15:                                               ; preds = %10
  %16 = load ptr, ptr %13, align 8, !tbaa !77
  %.not22 = icmp eq ptr %16, null
  br i1 %.not22, label %20, label %17

17:                                               ; preds = %15
  %18 = load i64, ptr %16, align 8, !tbaa !80
  %19 = icmp eq i64 %18, %14
  br i1 %19, label %.critedge25, label %20

20:                                               ; preds = %17, %15
  %21 = tail call i32 @g_type_check_instance_is_a(ptr noundef nonnull %13, i64 noundef %14) #13
  %22 = icmp eq i32 %21, 0
  br i1 %22, label %.critedge, label %.critedge25

.critedge25:                                      ; preds = %17, %20
  tail call void @gtk_widget_set_sensitive(ptr noundef nonnull %13, i32 noundef %5) #10
  br label %.critedge

.critedge:                                        ; preds = %10, %.critedge25, %20
  br i1 %11, label %10, label %8
}